; Function Attrs: nounwind uwtable
define noundef i32 @zend_create_internal_iterator_zval(ptr nocapture noundef writeonly %0, ptr noundef %1) local_unnamed_addr #0 {
  %3 = load ptr, ptr getelementptr inbounds (%struct._zend_executor_globals, ptr @executor_globals, i64 0, i32 17), align 8
  %4 = getelementptr inbounds i8, ptr %3, i64 24
  %5 = load ptr, ptr %4, align 8
  %6 = getelementptr inbounds i8, ptr %5, i64 16
  %7 = load ptr, ptr %6, align 8
  %8 = getelementptr inbounds i8, ptr %7, i64 392
  %9 = load ptr, ptr %8, align 8
  %10 = icmp ne ptr %9, @zend_user_it_get_new_iterator
  tail call void @llvm.assume(i1 %10)
  %11 = load ptr, ptr %1, align 8
  %12 = getelementptr inbounds i8, ptr %11, i64 16
  %13 = load ptr, ptr %12, align 8
  %14 = tail call ptr %9(ptr noundef %13, ptr noundef nonnull %1, i32 noundef 0) #9
  %.not = icmp eq ptr %14, null
  br i1 %.not, label %22, label %15

15:                                               ; preds = %2
  %16 = load ptr, ptr @zend_ce_internal_iterator, align 8
  %17 = tail call noalias ptr @_emalloc_80() #9
  tail call void @zend_object_std_init(ptr noundef %17, ptr noundef %16) #9
  %18 = getelementptr inbounds i8, ptr %17, i64 56
  %19 = getelementptr inbounds i8, ptr %17, i64 64
  store i8 0, ptr %19, align 8
  store ptr %14, ptr %18, align 8
  %20 = getelementptr inbounds i8, ptr %14, i64 80
  store i64 0, ptr %20, align 8
  store ptr %17, ptr %0, align 8
  %21 = getelementptr inbounds i8, ptr %0, i64 8
  store i32 776, ptr %21, align 8
  br label %22

22:                                               ; preds = %2, %15
  %.0 = phi i32 [ 0, %15 ], [ -1, %2 ]
  ret i32 %.0
}